target datalayout = "e-m:e-p270:32:32-p271:32:32-p272:64:64-i64:64-i128:128-f80:128-n8:16:32:64-S128"
target triple = "x86_64-pc-linux-gnu"

; Function Attrs: nounwind uwtable
define hidden i32 @lxb_encoding_decode_valid_utf_8_single(ptr noundef %0, ptr noundef %1) #0 {
  %3 = alloca i32, align 4
  %4 = alloca ptr, align 8
  %5 = alloca ptr, align 8
  %6 = alloca i32, align 4
  %7 = alloca ptr, align 8
  %8 = alloca i32, align 4
  store ptr %0, ptr %4, align 8, !tbaa !8
  store ptr %1, ptr %5, align 8, !tbaa !10
  call void @llvm.lifetime.start.p0(i64 4, ptr %6) #5
  call void @llvm.lifetime.start.p0(i64 8, ptr %7) #5
  %9 = load ptr, ptr %4, align 8, !tbaa !8
  %10 = load ptr, ptr %9, align 8, !tbaa !10
  store ptr %10, ptr %7, align 8, !tbaa !10
  %11 = load ptr, ptr %7, align 8, !tbaa !10
  %12 = load i8, ptr %11, align 1, !tbaa !27
  %13 = zext i8 %12 to i32
  %14 = icmp slt i32 %13, 128
  br i1 %14, label %15, label %32

15:                                               ; preds = %2
  %16 = load ptr, ptr %5, align 8, !tbaa !10
  %17 = load ptr, ptr %7, align 8, !tbaa !10
  %18 = ptrtoint ptr %16 to i64
  %19 = ptrtoint ptr %17 to i64
  %20 = sub i64 %18, %19
  %21 = icmp slt i64 %20, 1
  br i1 %21, label %22, label %25

22:                                               ; preds = %15
  %23 = load ptr, ptr %5, align 8, !tbaa !10
  %24 = load ptr, ptr %4, align 8, !tbaa !8
  store ptr %23, ptr %24, align 8, !tbaa !10
  store i32 2097151, ptr %3, align 4
  store i32 1, ptr %8, align 4
  br label %209

25:                                               ; preds = %15
  %26 = load ptr, ptr %7, align 8, !tbaa !10
  %27 = load i8, ptr %26, align 1, !tbaa !27
  %28 = zext i8 %27 to i32
  store i32 %28, ptr %6, align 4, !tbaa !28
  %29 = load ptr, ptr %4, align 8, !tbaa !8
  %30 = load ptr, ptr %29, align 8, !tbaa !10
  %31 = getelementptr inbounds i8, ptr %30, i64 1
  store ptr %31, ptr %29, align 8, !tbaa !10
  br label %207

32:                                               ; preds = %2
  %33 = load ptr, ptr %7, align 8, !tbaa !10
  %34 = load i8, ptr %33, align 1, !tbaa !27
  %35 = zext i8 %34 to i32
  %36 = and i32 %35, 224
  %37 = icmp eq i32 %36, 192
  br i1 %37, label %38, label %75

38:                                               ; preds = %32
  %39 = load ptr, ptr %5, align 8, !tbaa !10
  %40 = load ptr, ptr %7, align 8, !tbaa !10
  %41 = ptrtoint ptr %39 to i64
  %42 = ptrtoint ptr %40 to i64
  %43 = sub i64 %41, %42
  %44 = icmp slt i64 %43, 2
  br i1 %44, label %45, label %48

45:                                               ; preds = %38
  %46 = load ptr, ptr %5, align 8, !tbaa !10
  %47 = load ptr, ptr %4, align 8, !tbaa !8
  store ptr %46, ptr %47, align 8, !tbaa !10
  store i32 2097151, ptr %3, align 4
  store i32 1, ptr %8, align 4
  br label %209

48:                                               ; preds = %38
  %49 = load ptr, ptr %7, align 8, !tbaa !10
  %50 = getelementptr inbounds i8, ptr %49, i64 0
  %51 = load i8, ptr %50, align 1, !tbaa !27
  %52 = zext i8 %51 to i32
  %53 = load ptr, ptr %7, align 8, !tbaa !10
  %54 = getelementptr inbounds i8, ptr %53, i64 0
  %55 = load i8, ptr %54, align 1, !tbaa !27
  %56 = zext i8 %55 to i32
  %57 = and i32 192, %56
  %58 = xor i32 %52, %57
  %59 = shl i32 %58, 6
  store i32 %59, ptr %6, align 4, !tbaa !28
  %60 = load ptr, ptr %7, align 8, !tbaa !10
  %61 = getelementptr inbounds i8, ptr %60, i64 1
  %62 = load i8, ptr %61, align 1, !tbaa !27
  %63 = zext i8 %62 to i32
  %64 = load ptr, ptr %7, align 8, !tbaa !10
  %65 = getelementptr inbounds i8, ptr %64, i64 1
  %66 = load i8, ptr %65, align 1, !tbaa !27
  %67 = zext i8 %66 to i32
  %68 = and i32 128, %67
  %69 = xor i32 %63, %68
  %70 = load i32, ptr %6, align 4, !tbaa !28
  %71 = or i32 %70, %69
  store i32 %71, ptr %6, align 4, !tbaa !28
  %72 = load ptr, ptr %4, align 8, !tbaa !8
  %73 = load ptr, ptr %72, align 8, !tbaa !10
  %74 = getelementptr inbounds i8, ptr %73, i64 2
  store ptr %74, ptr %72, align 8, !tbaa !10
  br label %206

75:                                               ; preds = %32
  %76 = load ptr, ptr %7, align 8, !tbaa !10
  %77 = load i8, ptr %76, align 1, !tbaa !27
  %78 = zext i8 %77 to i32
  %79 = and i32 %78, 240
  %80 = icmp eq i32 %79, 224
  br i1 %80, label %81, label %131

81:                                               ; preds = %75
  %82 = load ptr, ptr %5, align 8, !tbaa !10
  %83 = load ptr, ptr %7, align 8, !tbaa !10
  %84 = ptrtoint ptr %82 to i64
  %85 = ptrtoint ptr %83 to i64
  %86 = sub i64 %84, %85
  %87 = icmp slt i64 %86, 3
  br i1 %87, label %88, label %91

88:                                               ; preds = %81
  %89 = load ptr, ptr %5, align 8, !tbaa !10
  %90 = load ptr, ptr %4, align 8, !tbaa !8
  store ptr %89, ptr %90, align 8, !tbaa !10
  store i32 2097151, ptr %3, align 4
  store i32 1, ptr %8, align 4
  br label %209

91:                                               ; preds = %81
  %92 = load ptr, ptr %7, align 8, !tbaa !10
  %93 = getelementptr inbounds i8, ptr %92, i64 0
  %94 = load i8, ptr %93, align 1, !tbaa !27
  %95 = zext i8 %94 to i32
  %96 = load ptr, ptr %7, align 8, !tbaa !10
  %97 = getelementptr inbounds i8, ptr %96, i64 0
  %98 = load i8, ptr %97, align 1, !tbaa !27
  %99 = zext i8 %98 to i32
  %100 = and i32 224, %99
  %101 = xor i32 %95, %100
  %102 = shl i32 %101, 12
  store i32 %102, ptr %6, align 4, !tbaa !28
  %103 = load ptr, ptr %7, align 8, !tbaa !10
  %104 = getelementptr inbounds i8, ptr %103, i64 1
  %105 = load i8, ptr %104, align 1, !tbaa !27
  %106 = zext i8 %105 to i32
  %107 = load ptr, ptr %7, align 8, !tbaa !10
  %108 = getelementptr inbounds i8, ptr %107, i64 1
  %109 = load i8, ptr %108, align 1, !tbaa !27
  %110 = zext i8 %109 to i32
  %111 = and i32 128, %110
  %112 = xor i32 %106, %111
  %113 = shl i32 %112, 6
  %114 = load i32, ptr %6, align 4, !tbaa !28
  %115 = or i32 %114, %113
  store i32 %115, ptr %6, align 4, !tbaa !28
  %116 = load ptr, ptr %7, align 8, !tbaa !10
  %117 = getelementptr inbounds i8, ptr %116, i64 2
  %118 = load i8, ptr %117, align 1, !tbaa !27
  %119 = zext i8 %118 to i32
  %120 = load ptr, ptr %7, align 8, !tbaa !10
  %121 = getelementptr inbounds i8, ptr %120, i64 2
  %122 = load i8, ptr %121, align 1, !tbaa !27
  %123 = zext i8 %122 to i32
  %124 = and i32 128, %123
  %125 = xor i32 %119, %124
  %126 = load i32, ptr %6, align 4, !tbaa !28
  %127 = or i32 %126, %125
  store i32 %127, ptr %6, align 4, !tbaa !28
  %128 = load ptr, ptr %4, align 8, !tbaa !8
  %129 = load ptr, ptr %128, align 8, !tbaa !10
  %130 = getelementptr inbounds i8, ptr %129, i64 3
  store ptr %130, ptr %128, align 8, !tbaa !10
  br label %205

131:                                              ; preds = %75
  %132 = load ptr, ptr %7, align 8, !tbaa !10
  %133 = load i8, ptr %132, align 1, !tbaa !27
  %134 = zext i8 %133 to i32
  %135 = and i32 %134, 248
  %136 = icmp eq i32 %135, 240
  br i1 %136, label %137, label %200

137:                                              ; preds = %131
  %138 = load ptr, ptr %5, align 8, !tbaa !10
  %139 = load ptr, ptr %7, align 8, !tbaa !10
  %140 = ptrtoint ptr %138 to i64
  %141 = ptrtoint ptr %139 to i64
  %142 = sub i64 %140, %141
  %143 = icmp slt i64 %142, 4
  br i1 %143, label %144, label %147

144:                                              ; preds = %137
  %145 = load ptr, ptr %5, align 8, !tbaa !10
  %146 = load ptr, ptr %4, align 8, !tbaa !8
  store ptr %145, ptr %146, align 8, !tbaa !10
  store i32 2097151, ptr %3, align 4
  store i32 1, ptr %8, align 4
  br label %209

147:                                              ; preds = %137
  %148 = load ptr, ptr %7, align 8, !tbaa !10
  %149 = getelementptr inbounds i8, ptr %148, i64 0
  %150 = load i8, ptr %149, align 1, !tbaa !27
  %151 = zext i8 %150 to i32
  %152 = load ptr, ptr %7, align 8, !tbaa !10
  %153 = getelementptr inbounds i8, ptr %152, i64 0
  %154 = load i8, ptr %153, align 1, !tbaa !27
  %155 = zext i8 %154 to i32
  %156 = and i32 240, %155
  %157 = xor i32 %151, %156
  %158 = shl i32 %157, 18
  store i32 %158, ptr %6, align 4, !tbaa !28
  %159 = load ptr, ptr %7, align 8, !tbaa !10
  %160 = getelementptr inbounds i8, ptr %159, i64 1
  %161 = load i8, ptr %160, align 1, !tbaa !27
  %162 = zext i8 %161 to i32
  %163 = load ptr, ptr %7, align 8, !tbaa !10
  %164 = getelementptr inbounds i8, ptr %163, i64 1
  %165 = load i8, ptr %164, align 1, !tbaa !27
  %166 = zext i8 %165 to i32
  %167 = and i32 128, %166
  %168 = xor i32 %162, %167
  %169 = shl i32 %168, 12
  %170 = load i32, ptr %6, align 4, !tbaa !28
  %171 = or i32 %170, %169
  store i32 %171, ptr %6, align 4, !tbaa !28
  %172 = load ptr, ptr %7, align 8, !tbaa !10
  %173 = getelementptr inbounds i8, ptr %172, i64 2
  %174 = load i8, ptr %173, align 1, !tbaa !27
  %175 = zext i8 %174 to i32
  %176 = load ptr, ptr %7, align 8, !tbaa !10
  %177 = getelementptr inbounds i8, ptr %176, i64 2
  %178 = load i8, ptr %177, align 1, !tbaa !27
  %179 = zext i8 %178 to i32
  %180 = and i32 128, %179
  %181 = xor i32 %175, %180
  %182 = shl i32 %181, 6
  %183 = load i32, ptr %6, align 4, !tbaa !28
  %184 = or i32 %183, %182
  store i32 %184, ptr %6, align 4, !tbaa !28
  %185 = load ptr, ptr %7, align 8, !tbaa !10
  %186 = getelementptr inbounds i8, ptr %185, i64 3
  %187 = load i8, ptr %186, align 1, !tbaa !27
  %188 = zext i8 %187 to i32
  %189 = load ptr, ptr %7, align 8, !tbaa !10
  %190 = getelementptr inbounds i8, ptr %189, i64 3
  %191 = load i8, ptr %190, align 1, !tbaa !27
  %192 = zext i8 %191 to i32
  %193 = and i32 128, %192
  %194 = xor i32 %188, %193
  %195 = load i32, ptr %6, align 4, !tbaa !28
  %196 = or i32 %195, %194
  store i32 %196, ptr %6, align 4, !tbaa !28
  %197 = load ptr, ptr %4, align 8, !tbaa !8
  %198 = load ptr, ptr %197, align 8, !tbaa !10
  %199 = getelementptr inbounds i8, ptr %198, i64 4
  store ptr %199, ptr %197, align 8, !tbaa !10
  br label %204

200:                                              ; preds = %131
  %201 = load ptr, ptr %4, align 8, !tbaa !8
  %202 = load ptr, ptr %201, align 8, !tbaa !10
  %203 = getelementptr inbounds nuw i8, ptr %202, i32 1
  store ptr %203, ptr %201, align 8, !tbaa !10
  store i32 2097151, ptr %3, align 4
  store i32 1, ptr %8, align 4
  br label %209

204:                                              ; preds = %147
  br label %205

205:                                              ; preds = %204, %91
  br label %206

206:                                              ; preds = %205, %48
  br label %207

207:                                              ; preds = %206, %25
  %208 = load i32, ptr %6, align 4, !tbaa !28
  store i32 %208, ptr %3, align 4
  store i32 1, ptr %8, align 4
  br label %209

209:                                              ; preds = %207, %200, %144, %88, %45, %22
  call void @llvm.lifetime.end.p0(i64 8, ptr %7) #5
  call void @llvm.lifetime.end.p0(i64 4, ptr %6) #5
  %210 = load i32, ptr %3, align 4
  ret i32 %210
}