; Function Attrs: mustprogress nofree norecurse nosync nounwind willreturn memory(read, argmem: readwrite, inaccessiblemem: none) uwtable
define hidden range(i32 0, 2097152) i32 @lxb_encoding_decode_valid_utf_8_single(ptr noundef captures(none) %0, ptr noundef %1) local_unnamed_addr #7 {
  %3 = load ptr, ptr %0, align 8, !tbaa !4
  %4 = load i8, ptr %3, align 1, !tbaa !24
  %5 = zext i8 %4 to i32
  %6 = icmp sgt i8 %4, -1
  br i1 %6, label %7, label %13

7:                                                ; preds = %2
  %8 = ptrtoint ptr %1 to i64
  %9 = ptrtoint ptr %3 to i64
  %10 = sub i64 %8, %9
  %11 = icmp slt i64 %10, 1
  %12 = getelementptr inbounds nuw i8, ptr %3, i64 1
  %spec.select = select i1 %11, ptr %1, ptr %12
  %spec.select56 = select i1 %11, i32 2097151, i32 %5
  br label %84

13:                                               ; preds = %2
  %14 = and i32 %5, 224
  %15 = icmp eq i32 %14, 192
  br i1 %15, label %16, label %30

16:                                               ; preds = %13
  %17 = ptrtoint ptr %1 to i64
  %18 = ptrtoint ptr %3 to i64
  %19 = sub i64 %17, %18
  %20 = icmp slt i64 %19, 2
  br i1 %20, label %84, label %21

21:                                               ; preds = %16
  %22 = shl nuw nsw i32 %5, 6
  %23 = and i32 %22, 1984
  %24 = getelementptr inbounds nuw i8, ptr %3, i64 1
  %25 = load i8, ptr %24, align 1, !tbaa !24
  %26 = and i8 %25, 127
  %27 = zext nneg i8 %26 to i32
  %28 = or i32 %23, %27
  %29 = getelementptr inbounds nuw i8, ptr %3, i64 2
  br label %84

30:                                               ; preds = %13
  %31 = and i32 %5, 240
  %32 = icmp eq i32 %31, 224
  br i1 %32, label %33, label %53

33:                                               ; preds = %30
  %34 = ptrtoint ptr %1 to i64
  %35 = ptrtoint ptr %3 to i64
  %36 = sub i64 %34, %35
  %37 = icmp slt i64 %36, 3
  br i1 %37, label %84, label %38

38:                                               ; preds = %33
  %39 = shl nuw nsw i32 %5, 12
  %40 = and i32 %39, 61440
  %41 = getelementptr inbounds nuw i8, ptr %3, i64 1
  %42 = load i8, ptr %41, align 1, !tbaa !24
  %43 = and i8 %42, 127
  %44 = zext nneg i8 %43 to i32
  %45 = shl nuw nsw i32 %44, 6
  %46 = or i32 %45, %40
  %47 = getelementptr inbounds nuw i8, ptr %3, i64 2
  %48 = load i8, ptr %47, align 1, !tbaa !24
  %49 = and i8 %48, 127
  %50 = zext nneg i8 %49 to i32
  %51 = or i32 %46, %50
  %52 = getelementptr inbounds nuw i8, ptr %3, i64 3
  br label %84

53:                                               ; preds = %30
  %54 = and i32 %5, 248
  %55 = icmp eq i32 %54, 240
  br i1 %55, label %56, label %82

56:                                               ; preds = %53
  %57 = ptrtoint ptr %1 to i64
  %58 = ptrtoint ptr %3 to i64
  %59 = sub i64 %57, %58
  %60 = icmp slt i64 %59, 4
  br i1 %60, label %84, label %61

61:                                               ; preds = %56
  %62 = shl nuw nsw i32 %5, 18
  %63 = and i32 %62, 1835008
  %64 = getelementptr inbounds nuw i8, ptr %3, i64 1
  %65 = load i8, ptr %64, align 1, !tbaa !24
  %66 = and i8 %65, 127
  %67 = zext nneg i8 %66 to i32
  %68 = shl nuw nsw i32 %67, 12
  %69 = or i32 %68, %63
  %70 = getelementptr inbounds nuw i8, ptr %3, i64 2
  %71 = load i8, ptr %70, align 1, !tbaa !24
  %72 = and i8 %71, 127
  %73 = zext nneg i8 %72 to i32
  %74 = shl nuw nsw i32 %73, 6
  %75 = or i32 %69, %74
  %76 = getelementptr inbounds nuw i8, ptr %3, i64 3
  %77 = load i8, ptr %76, align 1, !tbaa !24
  %78 = and i8 %77, 127
  %79 = zext nneg i8 %78 to i32
  %80 = or i32 %75, %79
  %81 = getelementptr inbounds nuw i8, ptr %3, i64 4
  br label %84

82:                                               ; preds = %53
  %83 = getelementptr inbounds nuw i8, ptr %3, i64 1
  br label %84

84:                                               ; preds = %7, %56, %33, %16, %38, %61, %21, %82
  %.sink = phi ptr [ %52, %38 ], [ %81, %61 ], [ %29, %21 ], [ %83, %82 ], [ %1, %16 ], [ %1, %33 ], [ %1, %56 ], [ %spec.select, %7 ]
  %.0 = phi i32 [ %51, %38 ], [ %80, %61 ], [ %28, %21 ], [ 2097151, %82 ], [ 2097151, %16 ], [ 2097151, %33 ], [ 2097151, %56 ], [ %spec.select56, %7 ]
  store ptr %.sink, ptr %0, align 8, !tbaa !4
  ret i32 %.0
}